---
triple:          'x86_64-apple-darwin'
binary-path:     '/Volumes/Asif ssd (mac)/Phitron/XPSC/week2/Topic Wise/output/test2'
relocations:
  - { offset: 0x1A0E2, size: 0x8, addend: 0x0, symName: __ZStL8__ioinit, symObjAddr: 0x8C700, symBinAddr: 0x100005010, symSize: 0x0 }
  - { offset: 0x1C18F, size: 0x8, addend: 0x0, symName: __ZNSt3tr112_GLOBAL__N_16ignoreE, symObjAddr: 0x8C701, symBinAddr: 0x100005011, symSize: 0x0 }
  - { offset: 0x1C48B, size: 0x8, addend: 0x0, symName: __ZN10__gnu_pbds6detail19bin_search_tree_setIxNS_9null_typeESt4lessIxENS0_11tree_traitsIxS2_S4_NS_33tree_order_statistics_node_updateENS_11rb_tree_tagESaIcEEES8_E16s_node_allocatorE, symObjAddr: 0x2348, symBinAddr: 0x100005000, symSize: 0x0 }
  - { offset: 0x1C60F, size: 0x8, addend: 0x0, symName: __ZNSaIN10__gnu_pbds6detail13rb_tree_node_IxmSaIcEEEED1Ev, symObjAddr: 0x184E, symBinAddr: 0x100002346, symSize: 0x1B }
  - { offset: 0x1C635, size: 0x8, addend: 0x0, symName: __ZN10__gnu_pbds6detail19bin_search_tree_setIxNS_9null_typeESt4lessIxENS0_11tree_traitsIxS2_S4_NS_33tree_order_statistics_node_updateENS_11rb_tree_tagESaIcEEES8_E10get_cmp_fnEv, symObjAddr: 0x1840, symBinAddr: 0x100002338, symSize: 0xE }
  - { offset: 0x1C65F, size: 0x8, addend: 0x0, symName: __ZN10__gnu_pbds6detail19bin_search_tree_setIxNS_9null_typeESt4lessIxENS0_11tree_traitsIxS2_S4_NS_33tree_order_statistics_node_updateENS_11rb_tree_tagESaIcEEES8_E8node_endEv, symObjAddr: 0x181C, symBinAddr: 0x100002314, symSize: 0x24 }
  - { offset: 0x1C689, size: 0x8, addend: 0x0, symName: __ZNK10__gnu_pbds6detail19bin_search_tree_setIxNS_9null_typeESt4lessIxENS0_11tree_traitsIxS2_S4_NS_33tree_order_statistics_node_updateENS_11rb_tree_tagESaIcEEES8_E8node_endEv, symObjAddr: 0x17F8, symBinAddr: 0x1000022F0, symSize: 0x24 }
  - { offset: 0x1C6B3, size: 0x8, addend: 0x0, symName: __ZN10__gnu_pbds6detail19bin_search_tree_setIxNS_9null_typeESt4lessIxENS0_11tree_traitsIxS2_S4_NS_33tree_order_statistics_node_updateENS_11rb_tree_tagESaIcEEES8_E10node_beginEv, symObjAddr: 0x17CA, symBinAddr: 0x1000022C2, symSize: 0x2E }
  - { offset: 0x1C6DD, size: 0x8, addend: 0x0, symName: __ZNK10__gnu_pbds6detail19bin_search_tree_setIxNS_9null_typeESt4lessIxENS0_11tree_traitsIxS2_S4_NS_33tree_order_statistics_node_updateENS_11rb_tree_tagESaIcEEES8_E10node_beginEv, symObjAddr: 0x179C, symBinAddr: 0x100002294, symSize: 0x2E }
  - { offset: 0x1C707, size: 0x8, addend: 0x0, symName: __ZNK10__gnu_pbds6detail19bin_search_tree_setIxNS_9null_typeESt4lessIxENS0_11tree_traitsIxS2_S4_NS_33tree_order_statistics_node_updateENS_11rb_tree_tagESaIcEEES8_E3endEv, symObjAddr: 0x1772, symBinAddr: 0x10000226A, symSize: 0x2A }
  - { offset: 0x1C731, size: 0x8, addend: 0x0, symName: __ZNK10__gnu_pbds33tree_order_statistics_node_updateINS_6detail30bin_search_tree_const_node_it_INS1_13rb_tree_node_IxmSaIcEEENS1_25bin_search_tree_const_it_IPS5_xPxPKxRxRS9_Lb1ES4_EESD_S4_EESE_St4lessIxES4_EclESE_SE_, symObjAddr: 0x16B6, symBinAddr: 0x1000021AE, symSize: 0xBC }
  - { offset: 0x1C7E2, size: 0x8, addend: 0x0, symName: __ZNSt15__new_allocatorIN10__gnu_pbds6detail13rb_tree_node_IxmSaIcEEEED2Ev, symObjAddr: 0x16AA, symBinAddr: 0x1000021A2, symSize: 0xC }
  - { offset: 0x1C804, size: 0x8, addend: 0x0, symName: __ZN10__gnu_pbds6detail19bin_search_tree_setIxNS_9null_typeESt4lessIxENS0_11tree_traitsIxS2_S4_NS_33tree_order_statistics_node_updateENS_11rb_tree_tagESaIcEEES8_E9clear_impEPNS0_13rb_tree_node_IxmS8_EE, symObjAddr: 0x1658, symBinAddr: 0x100002150, symSize: 0x52 }
  - { offset: 0x1C831, size: 0x8, addend: 0x0, symName: __ZN10__gnu_pbds6detail19bin_search_tree_setIxNS_9null_typeESt4lessIxENS0_11tree_traitsIxS2_S4_NS_33tree_order_statistics_node_updateENS_11rb_tree_tagESaIcEEES8_E10initializeEv, symObjAddr: 0x160A, symBinAddr: 0x100002102, symSize: 0x4E }
  - { offset: 0x1C87F, size: 0x8, addend: 0x0, symName: __ZN10__gnu_pbds6detail13branch_policyINS0_30bin_search_tree_const_node_it_INS0_13rb_tree_node_IxmSaIcEEENS0_25bin_search_tree_const_it_IPS5_xPxPKxRxRS9_Lb1ES4_EESD_S4_EESE_S4_ED2Ev, symObjAddr: 0x15EC, symBinAddr: 0x1000020E4, symSize: 0x1E }
  - { offset: 0x1C8A5, size: 0x8, addend: 0x0, symName: __ZNSt15__new_allocatorIN10__gnu_pbds6detail13rb_tree_node_IxmSaIcEEEE8allocateEmPKv, symObjAddr: 0x157C, symBinAddr: 0x100002074, symSize: 0x70 }
  - { offset: 0x1C931, size: 0x8, addend: 0x0, symName: __ZN10__gnu_pbds6detail19bin_search_tree_setIxNS_9null_typeESt4lessIxENS0_11tree_traitsIxS2_S4_NS_33tree_order_statistics_node_updateENS_11rb_tree_tagESaIcEEES8_E12apply_updateINS6_INS0_30bin_search_tree_const_node_it_INS0_13rb_tree_node_IxmS8_EENS0_25bin_search_tree_const_it_IPSE_xPxPKxRxRSI_Lb1ES8_EESM_S8_EESN_S4_S8_EEEEvSG_PT_, symObjAddr: 0x1524, symBinAddr: 0x10000201C, symSize: 0x58 }
  - { offset: 0x1C980, size: 0x8, addend: 0x0, symName: __ZSt7forwardIPN10__gnu_pbds6detail13rb_tree_node_IxmSaIcEEEEOT_RNSt16remove_referenceIS6_E4typeE, symObjAddr: 0x1515, symBinAddr: 0x10000200D, symSize: 0xF }
  - { offset: 0x1C9FE, size: 0x8, addend: 0x0, symName: __ZNSt4pairIPN10__gnu_pbds6detail13rb_tree_node_IxmSaIcEEEbEC1IRS5_bLb1EEEOT_OT0_, symObjAddr: 0x14D2, symBinAddr: 0x100001FCA, symSize: 0x43 }
  - { offset: 0x1CA4A, size: 0x8, addend: 0x0, symName: __ZSt7forwardIRPN10__gnu_pbds6detail13rb_tree_node_IxmSaIcEEEEOT_RNSt16remove_referenceIS7_E4typeE, symObjAddr: 0x14C3, symBinAddr: 0x100001FBB, symSize: 0xF }
  - { offset: 0x1CAC8, size: 0x8, addend: 0x0, symName: __ZNSt4pairIN10__gnu_pbds6detail25bin_search_tree_const_it_IPNS1_13rb_tree_node_IxmSaIcEEExPxPKxRxRS8_Lb1ES4_EEbEC1ISC_bLb1EEEOT_OT0_, symObjAddr: 0x1480, symBinAddr: 0x100001F78, symSize: 0x43 }
  - { offset: 0x1CB14, size: 0x8, addend: 0x0, symName: __ZSt7forwardIN10__gnu_pbds6detail25bin_search_tree_const_it_IPNS1_13rb_tree_node_IxmSaIcEEExPxPKxRxRS8_Lb1ES4_EEEOT_RNSt16remove_referenceISD_E4typeE, symObjAddr: 0x1471, symBinAddr: 0x100001F69, symSize: 0xF }
  - { offset: 0x1CB4A, size: 0x8, addend: 0x0, symName: __ZN10__gnu_pbds6detail19bin_search_tree_setIxNS_9null_typeESt4lessIxENS0_11tree_traitsIxS2_S4_NS_33tree_order_statistics_node_updateENS_11rb_tree_tagESaIcEEES8_E28get_new_node_for_leaf_insertERKxNSt3tr117integral_constantIiLi1EEE, symObjAddr: 0x13F0, symBinAddr: 0x100001EE8, symSize: 0x81 }
  - { offset: 0x1CB9D, size: 0x8, addend: 0x0, symName: __ZNSt15__new_allocatorIN10__gnu_pbds6detail13rb_tree_node_IxmSaIcEEEE10deallocateEPS4_m, symObjAddr: 0x13B6, symBinAddr: 0x100001EAE, symSize: 0x3A }
  - { offset: 0x1CBE7, size: 0x8, addend: 0x0, symName: __ZN10__gnu_pbds6detail19bin_search_tree_setIxNS_9null_typeESt4lessIxENS0_11tree_traitsIxS2_S4_NS_33tree_order_statistics_node_updateENS_11rb_tree_tagESaIcEEES8_E5clearEv, symObjAddr: 0x137A, symBinAddr: 0x100001E72, symSize: 0x3C }
  - { offset: 0x1CC35, size: 0x8, addend: 0x0, symName: __ZN10__gnu_pbds33tree_order_statistics_node_updateINS_6detail30bin_search_tree_const_node_it_INS1_13rb_tree_node_IxmSaIcEEENS1_25bin_search_tree_const_it_IPS5_xPxPKxRxRS9_Lb1ES4_EESD_S4_EESE_St4lessIxES4_ED2Ev, symObjAddr: 0x134C, symBinAddr: 0x100001E44, symSize: 0x2E }
  - { offset: 0x1CC5B, size: 0x8, addend: 0x0, symName: __ZN10__gnu_pbds6detail11rb_tree_setIxNS_9null_typeESt4lessIxENS0_11tree_traitsIxS2_S4_NS_33tree_order_statistics_node_updateENS_11rb_tree_tagESaIcEEES8_E10initializeEv, symObjAddr: 0x1334, symBinAddr: 0x100001E2C, symSize: 0x18 }
  - { offset: 0x1CC9F, size: 0x8, addend: 0x0, symName: __ZN10__gnu_pbds6detail19bin_search_tree_setIxNS_9null_typeESt4lessIxENS0_11tree_traitsIxS2_S4_NS_33tree_order_statistics_node_updateENS_11rb_tree_tagESaIcEEES8_EC2Ev, symObjAddr: 0x12AE, symBinAddr: 0x100001DA6, symSize: 0x86 }
  - { offset: 0x1CCE2, size: 0x8, addend: 0x0, symName: __ZN10__gnu_pbds33tree_order_statistics_node_updateINS_6detail30bin_search_tree_const_node_it_INS1_13rb_tree_node_IxmSaIcEEENS1_25bin_search_tree_const_it_IPS5_xPxPKxRxRS9_Lb1ES4_EESD_S4_EESE_St4lessIxES4_EC2Ev, symObjAddr: 0x1280, symBinAddr: 0x100001D78, symSize: 0x2E }
  - { offset: 0x1CD25, size: 0x8, addend: 0x0, symName: __ZN10__gnu_pbds6detail13branch_policyINS0_30bin_search_tree_const_node_it_INS0_13rb_tree_node_IxmSaIcEEENS0_25bin_search_tree_const_it_IPS5_xPxPKxRxRS9_Lb1ES4_EESD_S4_EESE_S4_EC2Ev, symObjAddr: 0x1262, symBinAddr: 0x100001D5A, symSize: 0x1E }
  - { offset: 0x1CD72, size: 0x8, addend: 0x0, symName: __ZN10__gnu_pbds6detail25bin_search_tree_const_it_IPNS0_13rb_tree_node_IxmSaIcEEExPxPKxRxRS7_Lb1ES3_EC1ES5_, symObjAddr: 0x1248, symBinAddr: 0x100001D40, symSize: 0x1A }
  - { offset: 0x1CDA1, size: 0x8, addend: 0x0, symName: __ZN10__gnu_pbds6detail13rb_tree_node_IxmSaIcEE12get_metadataEv, symObjAddr: 0x1236, symBinAddr: 0x100001D2E, symSize: 0x12 }
  - { offset: 0x1CDF2, size: 0x8, addend: 0x0, symName: __ZN10__gnu_pbds6detail30bin_search_tree_const_node_it_INS0_13rb_tree_node_IxmSaIcEEENS0_25bin_search_tree_const_it_IPS4_xPxPKxRxRS8_Lb1ES3_EESC_S3_EC1ES6_, symObjAddr: 0x121C, symBinAddr: 0x100001D14, symSize: 0x1A }
  - { offset: 0x1CE21, size: 0x8, addend: 0x0, symName: __ZN10__gnu_pbds6detail19bin_search_tree_setIxNS_9null_typeESt4lessIxENS0_11tree_traitsIxS2_S4_NS_33tree_order_statistics_node_updateENS_11rb_tree_tagESaIcEEES8_E13update_to_topINS6_INS0_30bin_search_tree_const_node_it_INS0_13rb_tree_node_IxmS8_EENS0_25bin_search_tree_const_it_IPSE_xPxPKxRxRSI_Lb1ES8_EESM_S8_EESN_S4_S8_EEEEvSG_PT_, symObjAddr: 0x11D0, symBinAddr: 0x100001CC8, symSize: 0x4C }
  - { offset: 0x1CE74, size: 0x8, addend: 0x0, symName: __ZN10__gnu_pbds6detail19bin_search_tree_setIxNS_9null_typeESt4lessIxENS0_11tree_traitsIxS2_S4_NS_33tree_order_statistics_node_updateENS_11rb_tree_tagESaIcEEES8_E12rotate_rightEPNS0_13rb_tree_node_IxmS8_EE, symObjAddr: 0x10D4, symBinAddr: 0x100001BCC, symSize: 0xFC }
  - { offset: 0x1CEBE, size: 0x8, addend: 0x0, symName: __ZN10__gnu_pbds6detail19bin_search_tree_setIxNS_9null_typeESt4lessIxENS0_11tree_traitsIxS2_S4_NS_33tree_order_statistics_node_updateENS_11rb_tree_tagESaIcEEES8_E11rotate_leftEPNS0_13rb_tree_node_IxmS8_EE, symObjAddr: 0xFDC, symBinAddr: 0x100001AD4, symSize: 0xF8 }
  - { offset: 0x1CF42, size: 0x8, addend: 0x0, symName: __ZNSt4pairIN10__gnu_pbds6detail25bin_search_tree_const_it_IPNS1_13rb_tree_node_IxmSaIcEEExPxPKxRxRS8_Lb1ES4_EEbEC1IS6_bLb1EEEOS_IT_T0_E, symObjAddr: 0xF8C, symBinAddr: 0x100001A84, symSize: 0x50 }
  - { offset: 0x1CF7F, size: 0x8, addend: 0x0, symName: __ZSt9make_pairIRPN10__gnu_pbds6detail13rb_tree_node_IxmSaIcEEEbESt4pairINSt25__strip_reference_wrapperINSt5decayIT_E4typeEE6__typeENS8_INS9_IT0_E4typeEE6__typeEEOSA_OSF_, symObjAddr: 0xF3C, symBinAddr: 0x100001A34, symSize: 0x50 }
  - { offset: 0x1CFD0, size: 0x8, addend: 0x0, symName: __ZN10__gnu_pbds6detail19bin_search_tree_setIxNS_9null_typeESt4lessIxENS0_11tree_traitsIxS2_S4_NS_33tree_order_statistics_node_updateENS_11rb_tree_tagESaIcEEES8_E15insert_leaf_newERKxPNS0_13rb_tree_node_IxmS8_EEb, symObjAddr: 0xE54, symBinAddr: 0x10000194C, symSize: 0xE8 }
  - { offset: 0x1D036, size: 0x8, addend: 0x0, symName: __ZSt9make_pairIN10__gnu_pbds6detail25bin_search_tree_const_it_IPNS1_13rb_tree_node_IxmSaIcEEExPxPKxRxRS8_Lb1ES4_EEbESt4pairINSt25__strip_reference_wrapperINSt5decayIT_E4typeEE6__typeENSE_INSF_IT0_E4typeEE6__typeEEOSG_OSL_, symObjAddr: 0xE05, symBinAddr: 0x1000018FD, symSize: 0x4F }
  - { offset: 0x1D087, size: 0x8, addend: 0x0, symName: __ZN10__gnu_pbds6detail19bin_search_tree_setIxNS_9null_typeESt4lessIxENS0_11tree_traitsIxS2_S4_NS_33tree_order_statistics_node_updateENS_11rb_tree_tagESaIcEEES8_E16insert_imp_emptyERKx, symObjAddr: 0xD4C, symBinAddr: 0x100001844, symSize: 0xB9 }
  - { offset: 0x1D0F5, size: 0x8, addend: 0x0, symName: __ZN10__gnu_pbds6detail19bin_search_tree_setIxNS_9null_typeESt4lessIxENS0_11tree_traitsIxS2_S4_NS_33tree_order_statistics_node_updateENS_11rb_tree_tagESaIcEEES8_ED0Ev, symObjAddr: 0xD20, symBinAddr: 0x100001818, symSize: 0x2C }
  - { offset: 0x1D11F, size: 0x8, addend: 0x0, symName: __ZN10__gnu_pbds6detail19bin_search_tree_setIxNS_9null_typeESt4lessIxENS0_11tree_traitsIxS2_S4_NS_33tree_order_statistics_node_updateENS_11rb_tree_tagESaIcEEES8_ED1Ev, symObjAddr: 0xCC8, symBinAddr: 0x1000017C0, symSize: 0x58 }
  - { offset: 0x1D149, size: 0x8, addend: 0x0, symName: __ZN10__gnu_pbds6detail19bin_search_tree_setIxNS_9null_typeESt4lessIxENS0_11tree_traitsIxS2_S4_NS_33tree_order_statistics_node_updateENS_11rb_tree_tagESaIcEEES8_ED2Ev, symObjAddr: 0xC70, symBinAddr: 0x100001768, symSize: 0x58 }
  - { offset: 0x1D189, size: 0x8, addend: 0x0, symName: __ZN10__gnu_pbds6detail11rb_tree_setIxNS_9null_typeESt4lessIxENS0_11tree_traitsIxS2_S4_NS_33tree_order_statistics_node_updateENS_11rb_tree_tagESaIcEEES8_EC2Ev, symObjAddr: 0xC36, symBinAddr: 0x10000172E, symSize: 0x3A }
  - { offset: 0x1D1AF, size: 0x8, addend: 0x0, symName: __ZNKSt4lessIxEclERKxS2_, symObjAddr: 0xC10, symBinAddr: 0x100001708, symSize: 0x26 }
  - { offset: 0x1D1F7, size: 0x8, addend: 0x0, symName: __ZN10__gnu_pbds6detail13branch_policyINS0_30bin_search_tree_const_node_it_INS0_13rb_tree_node_IxmSaIcEEENS0_25bin_search_tree_const_it_IPS5_xPxPKxRxRS9_Lb1ES4_EESD_S4_EESE_S4_E11extract_keyESC_, symObjAddr: 0xC01, symBinAddr: 0x1000016F9, symSize: 0xF }
  - { offset: 0x1D224, size: 0x8, addend: 0x0, symName: __ZNK10__gnu_pbds6detail13branch_policyINS0_30bin_search_tree_const_node_it_INS0_13rb_tree_node_IxmSaIcEEENS0_25bin_search_tree_const_it_IPS5_xPxPKxRxRS9_Lb1ES4_EESD_S4_EESE_S4_E12end_iteratorEv, symObjAddr: 0xBE0, symBinAddr: 0x1000016D8, symSize: 0x21 }
  - { offset: 0x1D24E, size: 0x8, addend: 0x0, symName: __ZNK10__gnu_pbds6detail30bin_search_tree_const_node_it_INS0_13rb_tree_node_IxmSaIcEEENS0_25bin_search_tree_const_it_IPS4_xPxPKxRxRS8_Lb1ES3_EESC_S3_E11get_r_childEv, symObjAddr: 0xBB4, symBinAddr: 0x1000016AC, symSize: 0x2C }
  - { offset: 0x1D278, size: 0x8, addend: 0x0, symName: __ZNK10__gnu_pbds6detail30bin_search_tree_const_node_it_INS0_13rb_tree_node_IxmSaIcEEENS0_25bin_search_tree_const_it_IPS4_xPxPKxRxRS8_Lb1ES3_EESC_S3_EdeEv, symObjAddr: 0xB8C, symBinAddr: 0x100001684, symSize: 0x28 }
  - { offset: 0x1D2A2, size: 0x8, addend: 0x0, symName: __ZNK10__gnu_pbds6detail30bin_search_tree_const_node_it_INS0_13rb_tree_node_IxmSaIcEEENS0_25bin_search_tree_const_it_IPS4_xPxPKxRxRS8_Lb1ES3_EESC_S3_E12get_metadataEv, symObjAddr: 0xB6E, symBinAddr: 0x100001666, symSize: 0x1E }
  - { offset: 0x1D2CC, size: 0x8, addend: 0x0, symName: __ZNK10__gnu_pbds6detail30bin_search_tree_const_node_it_INS0_13rb_tree_node_IxmSaIcEEENS0_25bin_search_tree_const_it_IPS4_xPxPKxRxRS8_Lb1ES3_EESC_S3_EeqERKSD_, symObjAddr: 0xB4C, symBinAddr: 0x100001644, symSize: 0x22 }
  - { offset: 0x1D306, size: 0x8, addend: 0x0, symName: __ZNK10__gnu_pbds6detail30bin_search_tree_const_node_it_INS0_13rb_tree_node_IxmSaIcEEENS0_25bin_search_tree_const_it_IPS4_xPxPKxRxRS8_Lb1ES3_EESC_S3_E11get_l_childEv, symObjAddr: 0xB20, symBinAddr: 0x100001618, symSize: 0x2C }
  - { offset: 0x1D330, size: 0x8, addend: 0x0, symName: __ZNK10__gnu_pbds6detail30bin_search_tree_const_node_it_INS0_13rb_tree_node_IxmSaIcEEENS0_25bin_search_tree_const_it_IPS4_xPxPKxRxRS8_Lb1ES3_EESC_S3_EneERKSD_, symObjAddr: 0xAFE, symBinAddr: 0x1000015F6, symSize: 0x22 }
  - { offset: 0x1D36A, size: 0x8, addend: 0x0, symName: __ZN10__gnu_pbds6detail11rb_tree_setIxNS_9null_typeESt4lessIxENS0_11tree_traitsIxS2_S4_NS_33tree_order_statistics_node_updateENS_11rb_tree_tagESaIcEEES8_E12insert_fixupEPNS0_13rb_tree_node_IxmS8_EE, symObjAddr: 0x8E8, symBinAddr: 0x1000013E0, symSize: 0x216 }
  - { offset: 0x1D3EA, size: 0x8, addend: 0x0, symName: __ZN10__gnu_pbds6detail19bin_search_tree_setIxNS_9null_typeESt4lessIxENS0_11tree_traitsIxS2_S4_NS_33tree_order_statistics_node_updateENS_11rb_tree_tagESaIcEEES8_E11insert_leafERKx, symObjAddr: 0x6A8, symBinAddr: 0x1000011A0, symSize: 0x240 }
  - { offset: 0x1D46B, size: 0x8, addend: 0x0, symName: __ZN10__gnu_pbds12basic_branchIxNS_9null_typeENS_11rb_tree_tagENS_33tree_order_statistics_node_updateINS_6detail30bin_search_tree_const_node_it_INS4_13rb_tree_node_IxmSaIcEEENS4_25bin_search_tree_const_it_IPS8_xPxPKxRxRSC_Lb1ES7_EESG_S7_EESH_St4lessIxES7_EEN9__gnu_cxx8typelist4nodeINSM_5chainISJ_NSO_INS4_11tree_traitsIxS1_SJ_S3_S2_S7_EENSM_9null_typeEEEEEEES7_ED0Ev, symObjAddr: 0x67C, symBinAddr: 0x100001174, symSize: 0x2C }
  - { offset: 0x1D495, size: 0x8, addend: 0x0, symName: __ZN10__gnu_pbds12basic_branchIxNS_9null_typeENS_11rb_tree_tagENS_33tree_order_statistics_node_updateINS_6detail30bin_search_tree_const_node_it_INS4_13rb_tree_node_IxmSaIcEEENS4_25bin_search_tree_const_it_IPS8_xPxPKxRxRSC_Lb1ES7_EESG_S7_EESH_St4lessIxES7_EEN9__gnu_cxx8typelist4nodeINSM_5chainISJ_NSO_INS4_11tree_traitsIxS1_SJ_S3_S2_S7_EENSM_9null_typeEEEEEEES7_ED1Ev, symObjAddr: 0x64E, symBinAddr: 0x100001146, symSize: 0x2E }
  - { offset: 0x1D4BF, size: 0x8, addend: 0x0, symName: __ZN10__gnu_pbds12basic_branchIxNS_9null_typeENS_11rb_tree_tagENS_33tree_order_statistics_node_updateINS_6detail30bin_search_tree_const_node_it_INS4_13rb_tree_node_IxmSaIcEEENS4_25bin_search_tree_const_it_IPS8_xPxPKxRxRSC_Lb1ES7_EESG_S7_EESH_St4lessIxES7_EEN9__gnu_cxx8typelist4nodeINSM_5chainISJ_NSO_INS4_11tree_traitsIxS1_SJ_S3_S2_S7_EENSM_9null_typeEEEEEEES7_ED2Ev, symObjAddr: 0x620, symBinAddr: 0x100001118, symSize: 0x2E }
  - { offset: 0x1D4FF, size: 0x8, addend: 0x0, symName: __ZN10__gnu_pbds12basic_branchIxNS_9null_typeENS_11rb_tree_tagENS_33tree_order_statistics_node_updateINS_6detail30bin_search_tree_const_node_it_INS4_13rb_tree_node_IxmSaIcEEENS4_25bin_search_tree_const_it_IPS8_xPxPKxRxRSC_Lb1ES7_EESG_S7_EESH_St4lessIxES7_EEN9__gnu_cxx8typelist4nodeINSM_5chainISJ_NSO_INS4_11tree_traitsIxS1_SJ_S3_S2_S7_EENSM_9null_typeEEEEEEES7_EC2Ev, symObjAddr: 0x5F2, symBinAddr: 0x1000010EA, symSize: 0x2E }
  - { offset: 0x1D54C, size: 0x8, addend: 0x0, symName: __ZN10__gnu_pbds6detail11rb_tree_setIxNS_9null_typeESt4lessIxENS0_11tree_traitsIxS2_S4_NS_33tree_order_statistics_node_updateENS_11rb_tree_tagESaIcEEES8_ED0Ev, symObjAddr: 0x5C6, symBinAddr: 0x1000010BE, symSize: 0x2C }
  - { offset: 0x1D576, size: 0x8, addend: 0x0, symName: __ZN10__gnu_pbds6detail11rb_tree_setIxNS_9null_typeESt4lessIxENS0_11tree_traitsIxS2_S4_NS_33tree_order_statistics_node_updateENS_11rb_tree_tagESaIcEEES8_ED1Ev, symObjAddr: 0x598, symBinAddr: 0x100001090, symSize: 0x2E }
  - { offset: 0x1D5A0, size: 0x8, addend: 0x0, symName: __ZN10__gnu_pbds6detail11rb_tree_setIxNS_9null_typeESt4lessIxENS0_11tree_traitsIxS2_S4_NS_33tree_order_statistics_node_updateENS_11rb_tree_tagESaIcEEES8_ED2Ev, symObjAddr: 0x56A, symBinAddr: 0x100001062, symSize: 0x2E }
  - { offset: 0x1D5C8, size: 0x8, addend: 0x0, symName: __ZSt7forwardIbEOT_RNSt16remove_referenceIS0_E4typeE, symObjAddr: 0x55C, symBinAddr: 0x100001054, symSize: 0xE }
  - { offset: 0x1D5FE, size: 0x8, addend: 0x0, symName: __ZNK10__gnu_pbds33tree_order_statistics_node_updateINS_6detail30bin_search_tree_const_node_it_INS1_13rb_tree_node_IxmSaIcEEENS1_25bin_search_tree_const_it_IPS5_xPxPKxRxRS9_Lb1ES4_EESD_S4_EESE_St4lessIxES4_E12order_of_keyESC_, symObjAddr: 0x3B4, symBinAddr: 0x100000EAC, symSize: 0x1A8 }
  - { offset: 0x1D6A4, size: 0x8, addend: 0x0, symName: __ZNK10__gnu_pbds6detail25bin_search_tree_const_it_IPNS0_13rb_tree_node_IxmSaIcEEExPxPKxRxRS7_Lb1ES3_EdeEv, symObjAddr: 0x39E, symBinAddr: 0x100000E96, symSize: 0x16 }
  - { offset: 0x1D6CE, size: 0x8, addend: 0x0, symName: __ZN10__gnu_pbds33tree_order_statistics_node_updateINS_6detail30bin_search_tree_const_node_it_INS1_13rb_tree_node_IxmSaIcEEENS1_25bin_search_tree_const_it_IPS5_xPxPKxRxRS9_Lb1ES4_EESD_S4_EESE_St4lessIxES4_E13find_by_orderEm, symObjAddr: 0x29C, symBinAddr: 0x100000D94, symSize: 0x102 }
  - { offset: 0x1D75B, size: 0x8, addend: 0x0, symName: __ZN10__gnu_pbds6detail11rb_tree_setIxNS_9null_typeESt4lessIxENS0_11tree_traitsIxS2_S4_NS_33tree_order_statistics_node_updateENS_11rb_tree_tagESaIcEEES8_E6insertERKx, symObjAddr: 0x240, symBinAddr: 0x100000D38, symSize: 0x5C }
  - { offset: 0x1D7C9, size: 0x8, addend: 0x0, symName: __ZN10__gnu_pbds4treeIxNS_9null_typeESt4lessIxENS_11rb_tree_tagENS_33tree_order_statistics_node_updateESaIcEED0Ev, symObjAddr: 0x214, symBinAddr: 0x100000D0C, symSize: 0x2C }
  - { offset: 0x1D7F3, size: 0x8, addend: 0x0, symName: __ZN10__gnu_pbds4treeIxNS_9null_typeESt4lessIxENS_11rb_tree_tagENS_33tree_order_statistics_node_updateESaIcEED1Ev, symObjAddr: 0x1E6, symBinAddr: 0x100000CDE, symSize: 0x2E }
  - { offset: 0x1D833, size: 0x8, addend: 0x0, symName: __ZN10__gnu_pbds4treeIxNS_9null_typeESt4lessIxENS_11rb_tree_tagENS_33tree_order_statistics_node_updateESaIcEEC1Ev, symObjAddr: 0x1B8, symBinAddr: 0x100000CB0, symSize: 0x2E }
  - { offset: 0x1D85C, size: 0x8, addend: 0x0, symName: _main, symObjAddr: 0x133, symBinAddr: 0x100000C2B, symSize: 0x85 }
  - { offset: 0x1D88C, size: 0x8, addend: 0x0, symName: __Z4ASIFv, symObjAddr: 0x12, symBinAddr: 0x100000B0A, symSize: 0x121 }
  - { offset: 0x1D8CD, size: 0x8, addend: 0x0, symName: __ZnwmPv, symObjAddr: 0x0, symBinAddr: 0x100000AF8, symSize: 0x12 }
...
